target datalayout = "e-m:e-p270:32:32-p271:32:32-p272:64:64-i64:64-i128:128-f80:128-n8:16:32:64-S128"
target triple = "x86_64-pc-linux-gnu"

@hf_gtpv2_spare_w0 = internal global i32 0, align 4
@hf_gtpv2_rohc_profile_flags = internal global i32 0, align 4
@hf_gtpv2_max_cid = internal global i32 0, align 4
@ett_gtpv2_rohc_profile_flags = internal global i32 0, align 4

; Function Attrs: null_pointer_is_valid sspstrong uwtable
define internal void @dissect_gtpv2_header_comp_comf(ptr noundef %0, ptr noundef %1, ptr noundef %2, ptr noundef %3, i16 noundef zeroext %4, i8 noundef zeroext %5, i8 noundef zeroext %6, ptr noundef %7) #1 {
  %9 = alloca ptr, align 8
  %10 = alloca ptr, align 8
  %11 = alloca ptr, align 8
  %12 = alloca ptr, align 8
  %13 = alloca i16, align 2
  %14 = alloca i8, align 1
  %15 = alloca i8, align 1
  %16 = alloca ptr, align 8
  %17 = alloca i32, align 4
  store ptr %0, ptr %9, align 8
  store ptr %1, ptr %10, align 8
  store ptr %2, ptr %11, align 8
  store ptr %3, ptr %12, align 8
  store i16 %4, ptr %13, align 2
  store i8 %5, ptr %14, align 1
  store i8 %6, ptr %15, align 1
  store ptr %7, ptr %16, align 8
  call void @llvm.lifetime.start.p0(i64 4, ptr %17) #11
  store i32 0, ptr %17, align 4
  %18 = load ptr, ptr %11, align 8
  %19 = load ptr, ptr %9, align 8
  %20 = load i32, ptr %17, align 4
  %21 = load i32, ptr @hf_gtpv2_rohc_profile_flags, align 4
  %22 = load i32, ptr @ett_gtpv2_rohc_profile_flags, align 4
  %23 = call ptr @proto_tree_add_bitmask_with_flags(ptr noundef %18, ptr noundef %19, i32 noundef %20, i32 noundef %21, i32 noundef %22, ptr noundef @dissect_gtpv2_header_comp_comf.gtpv2_rohc_profile_flags_flags, i32 noundef 0, i32 noundef 6)
  %24 = load i32, ptr %17, align 4
  %25 = add i32 %24, 1
  store i32 %25, ptr %17, align 4
  %26 = load ptr, ptr %11, align 8
  %27 = load i32, ptr @hf_gtpv2_spare_w0, align 4
  %28 = load ptr, ptr %9, align 8
  %29 = load i32, ptr %17, align 4
  %30 = call ptr @proto_tree_add_item(ptr noundef %26, i32 noundef %27, ptr noundef %28, i32 noundef %29, i32 noundef 1, i32 noundef 0)
  %31 = load i32, ptr %17, align 4
  %32 = add i32 %31, 1
  store i32 %32, ptr %17, align 4
  %33 = load ptr, ptr %11, align 8
  %34 = load i32, ptr @hf_gtpv2_max_cid, align 4
  %35 = load ptr, ptr %9, align 8
  %36 = load i32, ptr %17, align 4
  %37 = call ptr @proto_tree_add_item(ptr noundef %33, i32 noundef %34, ptr noundef %35, i32 noundef %36, i32 noundef 2, i32 noundef 0)
  call void @llvm.lifetime.end.p0(i64 4, ptr %17) #11
  ret void
}