; Function Attrs: null_pointer_is_valid sspstrong uwtable
define internal void @dissect_gtpv2_header_comp_comf(ptr noundef %0, ptr readnone captures(none) %1, ptr noundef %2, ptr readnone captures(none) %3, i16 zeroext %4, i8 zeroext %5, i8 zeroext %6, ptr readnone captures(none) %7) #1 {
  %9 = load i32, ptr @hf_gtpv2_rohc_profile_flags, align 4
  %10 = load i32, ptr @ett_gtpv2_rohc_profile_flags, align 4
  %11 = tail call ptr @proto_tree_add_bitmask_with_flags(ptr noundef %2, ptr noundef %0, i32 noundef 0, i32 noundef %9, i32 noundef %10, ptr noundef nonnull @dissect_gtpv2_header_comp_comf.gtpv2_rohc_profile_flags_flags, i32 noundef 0, i32 noundef 6)
  %12 = load i32, ptr @hf_gtpv2_spare_w0, align 4
  %13 = tail call ptr @proto_tree_add_item(ptr noundef %2, i32 noundef %12, ptr noundef %0, i32 noundef 1, i32 noundef 1, i32 noundef 0)
  %14 = load i32, ptr @hf_gtpv2_max_cid, align 4
  %15 = tail call ptr @proto_tree_add_item(ptr noundef %2, i32 noundef %14, ptr noundef %0, i32 noundef 2, i32 noundef 2, i32 noundef 0)
  ret void
}